target datalayout = "e-m:e-p270:32:32-p271:32:32-p272:64:64-i64:64-i128:128-f80:128-n8:16:32:64-S128"
target triple = "x86_64-pc-linux-gnu"

%struct.htbl_t = type { i64, i64, i64, i64 }

@H5PT_ptable_id_type = internal global i32 -2, align 4

; Function Attrs: nounwind uwtable
define i32 @H5PTget_next(i64 noundef %0, i64 noundef %1, ptr noundef %2) #0 {
  %4 = alloca i32, align 4
  %5 = alloca i64, align 8
  %6 = alloca i64, align 8
  %7 = alloca ptr, align 8
  %8 = alloca ptr, align 8
  %9 = alloca i32, align 4
  store i64 %0, ptr %5, align 8, !tbaa !3
  store i64 %1, ptr %6, align 8, !tbaa !3
  store ptr %2, ptr %7, align 8, !tbaa !10
  call void @llvm.lifetime.start.p0(i64 8, ptr %8) #6
  %10 = load i64, ptr %5, align 8, !tbaa !3
  %11 = load i32, ptr @H5PT_ptable_id_type, align 4, !tbaa !11
  %12 = call ptr @H5Iobject_verify(i64 noundef %10, i32 noundef %11)
  store ptr %12, ptr %8, align 8, !tbaa !10
  %13 = icmp eq ptr %12, null
  br i1 %13, label %14, label %15

14:                                               ; preds = %3
  br label %43

15:                                               ; preds = %3
  %16 = load i64, ptr %6, align 8, !tbaa !3
  %17 = icmp eq i64 %16, 0
  br i1 %17, label %18, label %19

18:                                               ; preds = %15
  store i32 0, ptr %4, align 4
  store i32 1, ptr %9, align 4
  br label %44

19:                                               ; preds = %15
  %20 = load ptr, ptr %8, align 8, !tbaa !10
  %21 = getelementptr inbounds nuw %struct.htbl_t, ptr %20, i32 0, i32 0
  %22 = load i64, ptr %21, align 8, !tbaa !13
  %23 = load ptr, ptr %8, align 8, !tbaa !10
  %24 = getelementptr inbounds nuw %struct.htbl_t, ptr %23, i32 0, i32 1
  %25 = load i64, ptr %24, align 8, !tbaa !15
  %26 = load ptr, ptr %8, align 8, !tbaa !10
  %27 = getelementptr inbounds nuw %struct.htbl_t, ptr %26, i32 0, i32 2
  %28 = load i64, ptr %27, align 8, !tbaa !21
  %29 = load i64, ptr %6, align 8, !tbaa !3
  %30 = load ptr, ptr %8, align 8, !tbaa !10
  %31 = getelementptr inbounds nuw %struct.htbl_t, ptr %30, i32 0, i32 3
  %32 = load i64, ptr %31, align 8, !tbaa !20
  %33 = load ptr, ptr %7, align 8, !tbaa !10
  %34 = call i32 @H5TB_common_read_records(i64 noundef %22, i64 noundef %25, i64 noundef %28, i64 noundef %29, i64 noundef %32, ptr noundef %33)
  %35 = icmp slt i32 %34, 0
  br i1 %35, label %36, label %37

36:                                               ; preds = %19
  br label %43

37:                                               ; preds = %19
  %38 = load i64, ptr %6, align 8, !tbaa !3
  %39 = load ptr, ptr %8, align 8, !tbaa !10
  %40 = getelementptr inbounds nuw %struct.htbl_t, ptr %39, i32 0, i32 2
  %41 = load i64, ptr %40, align 8, !tbaa !21
  %42 = add i64 %41, %38
  store i64 %42, ptr %40, align 8, !tbaa !21
  store i32 0, ptr %4, align 4
  store i32 1, ptr %9, align 4
  br label %44

43:                                               ; preds = %36, %14
  store i32 -1, ptr %4, align 4
  store i32 1, ptr %9, align 4
  br label %44

44:                                               ; preds = %43, %37, %18
  call void @llvm.lifetime.end.p0(i64 8, ptr %8) #6
  %45 = load i32, ptr %4, align 4
  ret i32 %45
}