; Function Attrs: nounwind uwtable
define range(i32 -1, 1) i32 @H5PTget_next(i64 noundef %0, i64 noundef %1, ptr noundef %2) local_unnamed_addr #0 {
  %4 = load i32, ptr @H5PT_ptable_id_type, align 4, !tbaa !3
  %5 = tail call ptr @H5Iobject_verify(i64 noundef %0, i32 noundef %4) #7
  %6 = icmp eq ptr %5, null
  br i1 %6, label %22, label %7

7:                                                ; preds = %3
  %8 = icmp eq i64 %1, 0
  br i1 %8, label %22, label %9

9:                                                ; preds = %7
  %10 = load i64, ptr %5, align 8, !tbaa !14
  %11 = getelementptr inbounds nuw i8, ptr %5, i64 8
  %12 = load i64, ptr %11, align 8, !tbaa !16
  %13 = getelementptr inbounds nuw i8, ptr %5, i64 16
  %14 = load i64, ptr %13, align 8, !tbaa !20
  %15 = getelementptr inbounds nuw i8, ptr %5, i64 24
  %16 = load i64, ptr %15, align 8, !tbaa !21
  %17 = tail call i32 @H5TB_common_read_records(i64 noundef %10, i64 noundef %12, i64 noundef %14, i64 noundef %1, i64 noundef %16, ptr noundef %2) #7
  %18 = icmp slt i32 %17, 0
  br i1 %18, label %22, label %19

19:                                               ; preds = %9
  %20 = load i64, ptr %13, align 8, !tbaa !20
  %21 = add i64 %20, %1
  store i64 %21, ptr %13, align 8, !tbaa !20
  br label %22

22:                                               ; preds = %3, %9, %7, %19
  %.0 = phi i32 [ 0, %19 ], [ 0, %7 ], [ -1, %9 ], [ -1, %3 ]
  ret i32 %.0
}